target datalayout = "e-m:e-p270:32:32-p271:32:32-p272:64:64-i64:64-i128:128-f80:128-n8:16:32:64-S128"
target triple = "x86_64-pc-linux-gnu"

%struct.LimExNFA32 = type { [256 x i8], i32, i32, i32, i32, i32, i32, i32, i32, i32, i32, i32, i32, i32, i32, i32, i32, i32, i32, i32, i32, i32, i32, i32, i32, i32, i32, i32, i32, i32, i32, i32, [8 x i32], i32, [8 x i8], %struct.m512, %struct.m512, %struct.m512 }
%struct.m512 = type { <4 x i64>, <4 x i64> }
%struct.NFARepeatInfo = type { i32, i32, i32, i32, i32, i32 }
%struct.RepeatInfo = type { i8, i32, i32, i32, i32, i32, i32, [2 x i32], i32, i32, i32, i32, i32 }
%struct.unaligned = type { i32 }
%struct.unaligned.0 = type { i16 }

; Function Attrs: alwaysinline nounwind uwtable
define internal ptr @get_reach_table(ptr noundef %0) #2 {
  %2 = alloca ptr, align 8
  %3 = alloca ptr, align 8
  store ptr %0, ptr %2, align 8
  call void @llvm.lifetime.start.p0(i64 8, ptr %3) #9
  %4 = load ptr, ptr %2, align 8
  %5 = getelementptr inbounds nuw i8, ptr %4, i64 640
  store ptr %5, ptr %3, align 8
  %6 = load ptr, ptr %3, align 8
  call void @llvm.lifetime.end.p0(i64 8, ptr %3) #9
  ret ptr %6
}

; Function Attrs: alwaysinline nounwind uwtable
define internal void @unaligned_store_u16(ptr noundef %0, i16 noundef zeroext %1) #2 {
  %3 = alloca ptr, align 8
  %4 = alloca i16, align 2
  %5 = alloca ptr, align 8
  store ptr %0, ptr %3, align 8
  store i16 %1, ptr %4, align 2
  call void @llvm.lifetime.start.p0(i64 8, ptr %5) #9
  %6 = load ptr, ptr %3, align 8
  store ptr %6, ptr %5, align 8
  %7 = load i16, ptr %4, align 2
  %8 = load ptr, ptr %5, align 8
  %9 = getelementptr inbounds nuw %struct.unaligned.0, ptr %8, i32 0, i32 0
  store i16 %7, ptr %9, align 1
  call void @llvm.lifetime.end.p0(i64 8, ptr %5) #9
  ret void
}

; Function Attrs: alwaysinline nounwind uwtable
define internal void @unaligned_store_u32(ptr noundef %0, i32 noundef %1) #2 {
  %3 = alloca ptr, align 8
  %4 = alloca i32, align 4
  %5 = alloca ptr, align 8
  store ptr %0, ptr %3, align 8
  store i32 %1, ptr %4, align 4
  call void @llvm.lifetime.start.p0(i64 8, ptr %5) #9
  %6 = load ptr, ptr %3, align 8
  store ptr %6, ptr %5, align 8
  %7 = load i32, ptr %4, align 4
  %8 = load ptr, ptr %5, align 8
  %9 = getelementptr inbounds nuw %struct.unaligned, ptr %8, i32 0, i32 0
  store i32 %7, ptr %9, align 1
  call void @llvm.lifetime.end.p0(i64 8, ptr %5) #9
  ret void
}

; Function Attrs: alwaysinline nounwind uwtable
define internal i32 @moNfaReachMask32(ptr noundef %0, i8 noundef zeroext %1) #2 {
  %3 = alloca ptr, align 8
  %4 = alloca i8, align 1
  %5 = alloca ptr, align 8
  store ptr %0, ptr %3, align 8
  store i8 %1, ptr %4, align 1
  call void @llvm.lifetime.start.p0(i64 8, ptr %5) #9
  %6 = load ptr, ptr %3, align 8
  %7 = call ptr @get_reach_table(ptr noundef %6)
  store ptr %7, ptr %5, align 8
  %8 = load ptr, ptr %5, align 8
  %9 = load ptr, ptr %3, align 8
  %10 = getelementptr inbounds nuw %struct.LimExNFA32, ptr %9, i32 0, i32 0
  %11 = load i8, ptr %4, align 1
  %12 = zext i8 %11 to i64
  %13 = getelementptr inbounds nuw [256 x i8], ptr %10, i64 0, i64 %12
  %14 = load i8, ptr %13, align 1
  %15 = zext i8 %14 to i64
  %16 = getelementptr inbounds nuw i32, ptr %8, i64 %15
  %17 = load i32, ptr %16, align 4
  call void @llvm.lifetime.end.p0(i64 8, ptr %5) #9
  ret i32 %17
}

; Function Attrs: alwaysinline nounwind uwtable
define internal void @partial_store_u32(ptr noundef %0, i32 noundef %1, i32 noundef %2) #2 {
  %4 = alloca ptr, align 8
  %5 = alloca i32, align 4
  %6 = alloca i32, align 4
  store ptr %0, ptr %4, align 8
  store i32 %1, ptr %5, align 4
  store i32 %2, ptr %6, align 4
  %7 = load i32, ptr %6, align 4
  switch i32 %7, label %28 [
    i32 4, label %8
    i32 3, label %11
    i32 2, label %20
    i32 1, label %24
    i32 0, label %28
  ]

8:                                                ; preds = %3
  %9 = load ptr, ptr %4, align 8
  %10 = load i32, ptr %5, align 4
  call void @unaligned_store_u32(ptr noundef %9, i32 noundef %10)
  br label %28

11:                                               ; preds = %3
  %12 = load ptr, ptr %4, align 8
  %13 = load i32, ptr %5, align 4
  %14 = trunc i32 %13 to i16
  call void @unaligned_store_u16(ptr noundef %12, i16 noundef zeroext %14)
  %15 = load i32, ptr %5, align 4
  %16 = lshr i32 %15, 16
  %17 = trunc i32 %16 to i8
  %18 = load ptr, ptr %4, align 8
  %19 = getelementptr inbounds i8, ptr %18, i64 2
  store i8 %17, ptr %19, align 1
  br label %28

20:                                               ; preds = %3
  %21 = load ptr, ptr %4, align 8
  %22 = load i32, ptr %5, align 4
  %23 = trunc i32 %22 to i16
  call void @unaligned_store_u16(ptr noundef %21, i16 noundef zeroext %23)
  br label %28

24:                                               ; preds = %3
  %25 = load i32, ptr %5, align 4
  %26 = trunc i32 %25 to i8
  %27 = load ptr, ptr %4, align 8
  store i8 %26, ptr %27, align 1
  br label %28

28:                                               ; preds = %3, %3, %24, %20, %11, %8
  ret void
}

; Function Attrs: alwaysinline nounwind uwtable
define internal ptr @getRepeatInfo(ptr noundef %0) #2 {
  %2 = alloca ptr, align 8
  %3 = alloca ptr, align 8
  store ptr %0, ptr %2, align 8
  call void @llvm.lifetime.start.p0(i64 8, ptr %3) #9
  %4 = load ptr, ptr %2, align 8
  %5 = getelementptr inbounds nuw i8, ptr %4, i64 24
  store ptr %5, ptr %3, align 8
  %6 = load ptr, ptr %3, align 8
  call void @llvm.lifetime.end.p0(i64 8, ptr %3) #9
  ret ptr %6
}

; Function Attrs: alwaysinline nounwind uwtable
define internal ptr @getNfaRepeatInfo32(ptr noundef %0, i32 noundef %1) #2 {
  %3 = alloca ptr, align 8
  %4 = alloca i32, align 4
  %5 = alloca ptr, align 8
  %6 = alloca ptr, align 8
  %7 = alloca ptr, align 8
  store ptr %0, ptr %3, align 8
  store i32 %1, ptr %4, align 4
  call void @llvm.lifetime.start.p0(i64 8, ptr %5) #9
  %8 = load ptr, ptr %3, align 8
  store ptr %8, ptr %5, align 8
  call void @llvm.lifetime.start.p0(i64 8, ptr %6) #9
  %9 = load ptr, ptr %5, align 8
  %10 = load ptr, ptr %3, align 8
  %11 = getelementptr inbounds nuw %struct.LimExNFA32, ptr %10, i32 0, i32 13
  %12 = load i32, ptr %11, align 16
  %13 = zext i32 %12 to i64
  %14 = getelementptr inbounds nuw i8, ptr %9, i64 %13
  store ptr %14, ptr %6, align 8
  call void @llvm.lifetime.start.p0(i64 8, ptr %7) #9
  %15 = load ptr, ptr %5, align 8
  %16 = load ptr, ptr %6, align 8
  %17 = load i32, ptr %4, align 4
  %18 = zext i32 %17 to i64
  %19 = getelementptr inbounds nuw i32, ptr %16, i64 %18
  %20 = load i32, ptr %19, align 4
  %21 = zext i32 %20 to i64
  %22 = getelementptr inbounds nuw i8, ptr %15, i64 %21
  store ptr %22, ptr %7, align 8
  %23 = load ptr, ptr %7, align 8
  call void @llvm.lifetime.end.p0(i64 8, ptr %7) #9
  call void @llvm.lifetime.end.p0(i64 8, ptr %6) #9
  call void @llvm.lifetime.end.p0(i64 8, ptr %5) #9
  ret ptr %23
}

; Function Attrs: alwaysinline nounwind uwtable
define internal void @moNfaCompressState32(ptr noundef %0, ptr noundef %1, ptr noundef %2, i8 noundef zeroext %3) #2 {
  %5 = alloca ptr, align 8
  %6 = alloca ptr, align 8
  %7 = alloca ptr, align 8
  %8 = alloca i8, align 1
  %9 = alloca i32, align 4
  %10 = alloca i32, align 4
  %11 = alloca i32, align 4
  %12 = alloca i32, align 4
  %13 = alloca i32, align 4
  store ptr %0, ptr %5, align 8
  store ptr %1, ptr %6, align 8
  store ptr %2, ptr %7, align 8
  store i8 %3, ptr %8, align 1
  call void @llvm.lifetime.start.p0(i64 4, ptr %9) #9
  %14 = load ptr, ptr %7, align 8
  %15 = load i32, ptr %14, align 4
  store i32 %15, ptr %9, align 4
  br label %16

16:                                               ; preds = %4
  br label %17

17:                                               ; preds = %16
  br label %18

18:                                               ; preds = %17
  %19 = load ptr, ptr %5, align 8
  %20 = getelementptr inbounds nuw %struct.LimExNFA32, ptr %19, i32 0, i32 19
  %21 = load i32, ptr %20, align 8
  %22 = and i32 %21, 1
  %23 = icmp ne i32 %22, 0
  br i1 %23, label %33, label %24

24:                                               ; preds = %18
  br label %25

25:                                               ; preds = %24
  br label %26

26:                                               ; preds = %25
  br label %27

27:                                               ; preds = %26
  %28 = load ptr, ptr %6, align 8
  %29 = load i32, ptr %9, align 4
  %30 = load ptr, ptr %5, align 8
  %31 = getelementptr inbounds nuw %struct.LimExNFA32, ptr %30, i32 0, i32 18
  %32 = load i32, ptr %31, align 4
  call void @partial_store_u32(ptr noundef %28, i32 noundef %29, i32 noundef %32)
  br label %85

33:                                               ; preds = %18
  br label %34

34:                                               ; preds = %33
  br label %35

35:                                               ; preds = %34
  br label %36

36:                                               ; preds = %35
  call void @llvm.lifetime.start.p0(i64 4, ptr %10) #9
  %37 = load ptr, ptr %5, align 8
  %38 = load i8, ptr %8, align 1
  %39 = call i32 @moNfaReachMask32(ptr noundef %37, i8 noundef zeroext %38)
  store i32 %39, ptr %10, align 4
  %40 = load ptr, ptr %5, align 8
  %41 = getelementptr inbounds nuw %struct.LimExNFA32, ptr %40, i32 0, i32 19
  %42 = load i32, ptr %41, align 8
  %43 = and i32 %42, 2
  %44 = icmp ne i32 %43, 0
  br i1 %44, label %45, label %75

45:                                               ; preds = %36
  call void @llvm.lifetime.start.p0(i64 4, ptr %11) #9
  %46 = load ptr, ptr %5, align 8
  %47 = getelementptr inbounds nuw %struct.LimExNFA32, ptr %46, i32 0, i32 28
  %48 = load i32, ptr %47, align 4
  %49 = load i32, ptr %9, align 4
  %50 = and i32 %48, %49
  store i32 %50, ptr %11, align 4
  %51 = load i32, ptr %11, align 4
  %52 = icmp eq i32 %51, 0
  br i1 %52, label %53, label %62

53:                                               ; preds = %45
  br label %54

54:                                               ; preds = %53
  br label %55

55:                                               ; preds = %54
  br label %56

56:                                               ; preds = %55
  %57 = load ptr, ptr %6, align 8
  %58 = load ptr, ptr %5, align 8
  %59 = getelementptr inbounds nuw %struct.LimExNFA32, ptr %58, i32 0, i32 18
  %60 = load i32, ptr %59, align 4
  %61 = zext i32 %60 to i64
  call void @llvm.memset.p0.i64(ptr align 1 %57, i8 0, i64 %61, i1 false)
  store i32 1, ptr %12, align 4
  br label %72

62:                                               ; preds = %45
  call void @llvm.lifetime.start.p0(i64 4, ptr %13) #9
  %63 = load ptr, ptr %5, align 8
  %64 = getelementptr inbounds nuw %struct.LimExNFA32, ptr %63, i32 0, i32 28
  %65 = load i32, ptr %64, align 4
  %66 = load i32, ptr %10, align 4
  %67 = and i32 %65, %66
  store i32 %67, ptr %13, align 4
  %68 = load ptr, ptr %6, align 8
  %69 = load ptr, ptr %5, align 8
  %70 = getelementptr inbounds nuw %struct.LimExNFA32, ptr %69, i32 0, i32 18
  %71 = load i32, ptr %70, align 4
  call void @storecompressed32(ptr noundef %68, ptr noundef %11, ptr noundef %13, i32 noundef %71)
  call void @llvm.lifetime.end.p0(i64 4, ptr %13) #9
  store i32 0, ptr %12, align 4
  br label %72

72:                                               ; preds = %62, %56
  call void @llvm.lifetime.end.p0(i64 4, ptr %11) #9
  %73 = load i32, ptr %12, align 4
  switch i32 %73, label %82 [
    i32 0, label %74
  ]

74:                                               ; preds = %72
  br label %81

75:                                               ; preds = %36
  %76 = load ptr, ptr %6, align 8
  %77 = load ptr, ptr %7, align 8
  %78 = load ptr, ptr %5, align 8
  %79 = getelementptr inbounds nuw %struct.LimExNFA32, ptr %78, i32 0, i32 18
  %80 = load i32, ptr %79, align 4
  call void @storecompressed32(ptr noundef %76, ptr noundef %77, ptr noundef %10, i32 noundef %80)
  br label %81

81:                                               ; preds = %75, %74
  store i32 0, ptr %12, align 4
  br label %82

82:                                               ; preds = %81, %72
  call void @llvm.lifetime.end.p0(i64 4, ptr %10) #9
  %83 = load i32, ptr %12, align 4
  switch i32 %83, label %86 [
    i32 0, label %84
  ]

84:                                               ; preds = %82
  br label %85

85:                                               ; preds = %84, %27
  store i32 0, ptr %12, align 4
  br label %86

86:                                               ; preds = %85, %82
  call void @llvm.lifetime.end.p0(i64 4, ptr %9) #9
  %87 = load i32, ptr %12, align 4
  switch i32 %87, label %89 [
    i32 0, label %88
    i32 1, label %88
  ]

88:                                               ; preds = %86, %86
  ret void

89:                                               ; preds = %86
  unreachable
}

; Function Attrs: alwaysinline nounwind uwtable
define internal i32 @moNfaInitial32(ptr noundef %0, i8 noundef signext %1) #2 {
  %3 = alloca ptr, align 8
  %4 = alloca i8, align 1
  store ptr %0, ptr %3, align 8
  store i8 %1, ptr %4, align 1
  %5 = load i8, ptr %4, align 1
  %6 = sext i8 %5 to i32
  %7 = icmp ne i32 %6, 0
  br i1 %7, label %8, label %11

8:                                                ; preds = %2
  %9 = load ptr, ptr %3, align 8
  %10 = getelementptr inbounds nuw %struct.LimExNFA32, ptr %9, i32 0, i32 21
  br label %14

11:                                               ; preds = %2
  %12 = load ptr, ptr %3, align 8
  %13 = getelementptr inbounds nuw %struct.LimExNFA32, ptr %12, i32 0, i32 20
  br label %14

14:                                               ; preds = %11, %8
  %15 = phi ptr [ %10, %8 ], [ %13, %11 ]
  %16 = load i32, ptr %15, align 4
  ret i32 %16
}

; Function Attrs: nounwind uwtable
define hidden signext i8 @nfaExecLimEx32_initCompressedState(ptr noundef %0, i64 noundef %1, ptr noundef %2, i8 noundef zeroext %3) #0 {
  %5 = alloca i8, align 1
  %6 = alloca ptr, align 8
  %7 = alloca i64, align 8
  %8 = alloca ptr, align 8
  %9 = alloca i8, align 1
  %10 = alloca ptr, align 8
  %11 = alloca i32, align 4
  %12 = alloca i32, align 4
  %13 = alloca ptr, align 8
  %14 = alloca i32, align 4
  %15 = alloca ptr, align 8
  %16 = alloca ptr, align 8
  store ptr %0, ptr %6, align 8
  store i64 %1, ptr %7, align 8
  store ptr %2, ptr %8, align 8
  store i8 %3, ptr %9, align 1
  call void @llvm.lifetime.start.p0(i64 8, ptr %10) #9
  %17 = load ptr, ptr %6, align 8
  %18 = getelementptr inbounds nuw i8, ptr %17, i64 64
  store ptr %18, ptr %10, align 8
  call void @llvm.lifetime.start.p0(i64 4, ptr %11) #9
  %19 = load ptr, ptr %10, align 8
  %20 = load i64, ptr %7, align 8
  %21 = icmp ne i64 %20, 0
  %22 = xor i1 %21, true
  %23 = xor i1 %22, true
  %24 = zext i1 %23 to i32
  %25 = trunc i32 %24 to i8
  %26 = call i32 @moNfaInitial32(ptr noundef %19, i8 noundef signext %25)
  store i32 %26, ptr %11, align 4
  %27 = load i32, ptr %11, align 4
  %28 = icmp eq i32 %27, 0
  br i1 %28, label %29, label %33

29:                                               ; preds = %4
  br label %30

30:                                               ; preds = %29
  br label %31

31:                                               ; preds = %30
  br label %32

32:                                               ; preds = %31
  store i8 0, ptr %5, align 1
  store i32 1, ptr %12, align 4
  br label %70

33:                                               ; preds = %4
  %34 = load ptr, ptr %10, align 8
  %35 = load ptr, ptr %8, align 8
  %36 = load i8, ptr %9, align 1
  call void @moNfaCompressState32(ptr noundef %34, ptr noundef %35, ptr noundef %11, i8 noundef zeroext %36)
  call void @llvm.lifetime.start.p0(i64 8, ptr %13) #9
  %37 = load ptr, ptr %8, align 8
  %38 = load ptr, ptr %10, align 8
  %39 = getelementptr inbounds nuw %struct.LimExNFA32, ptr %38, i32 0, i32 18
  %40 = load i32, ptr %39, align 4
  %41 = zext i32 %40 to i64
  %42 = getelementptr inbounds nuw i8, ptr %37, i64 %41
  store ptr %42, ptr %13, align 8
  call void @llvm.lifetime.start.p0(i64 4, ptr %14) #9
  store i32 0, ptr %14, align 4
  br label %43

43:                                               ; preds = %66, %33
  %44 = load i32, ptr %14, align 4
  %45 = load ptr, ptr %10, align 8
  %46 = getelementptr inbounds nuw %struct.LimExNFA32, ptr %45, i32 0, i32 12
  %47 = load i32, ptr %46, align 4
  %48 = icmp ult i32 %44, %47
  br i1 %48, label %50, label %49

49:                                               ; preds = %43
  store i32 4, ptr %12, align 4
  call void @llvm.lifetime.end.p0(i64 4, ptr %14) #9
  br label %69

50:                                               ; preds = %43
  call void @llvm.lifetime.start.p0(i64 8, ptr %15) #9
  %51 = load ptr, ptr %10, align 8
  %52 = load i32, ptr %14, align 4
  %53 = call ptr @getNfaRepeatInfo32(ptr noundef %51, i32 noundef %52)
  store ptr %53, ptr %15, align 8
  call void @llvm.lifetime.start.p0(i64 8, ptr %16) #9
  %54 = load ptr, ptr %15, align 8
  %55 = call ptr @getRepeatInfo(ptr noundef %54)
  store ptr %55, ptr %16, align 8
  %56 = load ptr, ptr %13, align 8
  %57 = load ptr, ptr %15, align 8
  %58 = getelementptr inbounds nuw %struct.NFARepeatInfo, ptr %57, i32 0, i32 2
  %59 = load i32, ptr %58, align 4
  %60 = zext i32 %59 to i64
  %61 = getelementptr inbounds nuw i8, ptr %56, i64 %60
  %62 = load ptr, ptr %16, align 8
  %63 = getelementptr inbounds nuw %struct.RepeatInfo, ptr %62, i32 0, i32 4
  %64 = load i32, ptr %63, align 4
  %65 = zext i32 %64 to i64
  call void @llvm.memset.p0.i64(ptr align 1 %61, i8 0, i64 %65, i1 false)
  call void @llvm.lifetime.end.p0(i64 8, ptr %16) #9
  call void @llvm.lifetime.end.p0(i64 8, ptr %15) #9
  br label %66

66:                                               ; preds = %50
  %67 = load i32, ptr %14, align 4
  %68 = add i32 %67, 1
  store i32 %68, ptr %14, align 4
  br label %43

69:                                               ; preds = %49
  store i8 1, ptr %5, align 1
  store i32 1, ptr %12, align 4
  call void @llvm.lifetime.end.p0(i64 8, ptr %13) #9
  br label %70

70:                                               ; preds = %69, %32
  call void @llvm.lifetime.end.p0(i64 4, ptr %11) #9
  call void @llvm.lifetime.end.p0(i64 8, ptr %10) #9
  %71 = load i8, ptr %5, align 1
  ret i8 %71
}