; Function Attrs: nounwind uwtable
define hidden signext range(i8 0, 2) i8 @nfaExecLimEx32_initCompressedState(ptr noundef readonly captures(none) %0, i64 noundef %1, ptr noundef %2, i8 noundef zeroext %3) local_unnamed_addr #0 {
  %5 = alloca i32, align 4
  %6 = alloca i32, align 4
  %7 = alloca i32, align 4
  %8 = alloca i32, align 4
  %9 = getelementptr inbounds nuw i8, ptr %0, i64 64
  call void @llvm.lifetime.start.p0(i64 4, ptr nonnull %8) #8
  %.not = icmp eq i64 %1, 0
  %.v.i = select i1 %.not, i64 332, i64 336
  %10 = getelementptr inbounds nuw i8, ptr %9, i64 %.v.i
  %11 = load i32, ptr %10, align 4
  store i32 %11, ptr %8, align 4
  %12 = icmp eq i32 %11, 0
  br i1 %12, label %.loopexit, label %13

13:                                               ; preds = %4
  %14 = getelementptr inbounds nuw i8, ptr %0, i64 392
  %15 = load i32, ptr %14, align 8
  %16 = and i32 %15, 1
  %.not.i = icmp eq i32 %16, 0
  br i1 %.not.i, label %17, label %30

17:                                               ; preds = %13
  %18 = getelementptr inbounds nuw i8, ptr %0, i64 388
  %19 = load i32, ptr %18, align 4
  switch i32 %19, label %moNfaCompressState32.exit [
    i32 4, label %20
    i32 3, label %21
    i32 2, label %26
    i32 1, label %28
  ]

20:                                               ; preds = %17
  store i32 %11, ptr %2, align 1
  br label %moNfaCompressState32.exit

21:                                               ; preds = %17
  %22 = trunc i32 %11 to i16
  store i16 %22, ptr %2, align 1
  %23 = lshr i32 %11, 16
  %24 = trunc i32 %23 to i8
  %25 = getelementptr inbounds nuw i8, ptr %2, i64 2
  store i8 %24, ptr %25, align 1
  br label %moNfaCompressState32.exit

26:                                               ; preds = %17
  %27 = trunc i32 %11 to i16
  store i16 %27, ptr %2, align 1
  br label %moNfaCompressState32.exit

28:                                               ; preds = %17
  %29 = trunc i32 %11 to i8
  store i8 %29, ptr %2, align 1
  br label %moNfaCompressState32.exit

30:                                               ; preds = %13
  call void @llvm.lifetime.start.p0(i64 4, ptr nonnull %5) #8
  %31 = getelementptr inbounds nuw i8, ptr %0, i64 704
  %32 = zext i8 %3 to i64
  %33 = getelementptr inbounds nuw [256 x i8], ptr %9, i64 0, i64 %32
  %34 = load i8, ptr %33, align 1
  %35 = zext i8 %34 to i64
  %36 = getelementptr inbounds nuw i32, ptr %31, i64 %35
  %37 = load i32, ptr %36, align 4
  store i32 %37, ptr %5, align 4
  %38 = and i32 %15, 2
  %.not20.i = icmp eq i32 %38, 0
  br i1 %.not20.i, label %47, label %39

39:                                               ; preds = %30
  call void @llvm.lifetime.start.p0(i64 4, ptr nonnull %6) #8
  %40 = getelementptr inbounds nuw i8, ptr %0, i64 428
  %41 = load i32, ptr %40, align 4
  %42 = and i32 %41, %11
  store i32 %42, ptr %6, align 4
  %.not21.i = icmp eq i32 %42, 0
  br i1 %.not21.i, label %50, label %43

43:                                               ; preds = %39
  call void @llvm.lifetime.start.p0(i64 4, ptr nonnull %7) #8
  %44 = and i32 %41, %37
  store i32 %44, ptr %7, align 4
  %45 = getelementptr inbounds nuw i8, ptr %0, i64 388
  %46 = load i32, ptr %45, align 4
  call void @storecompressed32(ptr noundef %2, ptr noundef nonnull %6, ptr noundef nonnull %7, i32 noundef %46) #8
  call void @llvm.lifetime.end.p0(i64 4, ptr nonnull %7) #8
  call void @llvm.lifetime.end.p0(i64 4, ptr nonnull %6) #8
  br label %.critedge.i

47:                                               ; preds = %30
  %48 = getelementptr inbounds nuw i8, ptr %0, i64 388
  %49 = load i32, ptr %48, align 4
  call void @storecompressed32(ptr noundef %2, ptr noundef nonnull %8, ptr noundef nonnull %5, i32 noundef %49) #8
  br label %.critedge.i

.critedge.i:                                      ; preds = %43, %47
  call void @llvm.lifetime.end.p0(i64 4, ptr nonnull %5) #8
  br label %moNfaCompressState32.exit

50:                                               ; preds = %39
  %51 = getelementptr inbounds nuw i8, ptr %0, i64 388
  %52 = load i32, ptr %51, align 4
  %53 = zext i32 %52 to i64
  tail call void @llvm.memset.p0.i64(ptr align 1 %2, i8 0, i64 %53, i1 false)
  call void @llvm.lifetime.end.p0(i64 4, ptr nonnull %6) #8
  call void @llvm.lifetime.end.p0(i64 4, ptr nonnull %5) #8
  br label %moNfaCompressState32.exit

moNfaCompressState32.exit:                        ; preds = %28, %26, %21, %20, %17, %.critedge.i, %50
  %54 = getelementptr inbounds nuw i8, ptr %0, i64 388
  %55 = load i32, ptr %54, align 4
  %56 = zext i32 %55 to i64
  %57 = getelementptr inbounds nuw i8, ptr %2, i64 %56
  %58 = getelementptr inbounds nuw i8, ptr %0, i64 364
  %59 = load i32, ptr %58, align 4
  %.not20 = icmp eq i32 %59, 0
  br i1 %.not20, label %.loopexit, label %.lr.ph

.lr.ph:                                           ; preds = %moNfaCompressState32.exit
  %60 = getelementptr inbounds nuw i8, ptr %0, i64 368
  br label %61

61:                                               ; preds = %.lr.ph, %61
  %indvars.iv = phi i64 [ 0, %.lr.ph ], [ %indvars.iv.next, %61 ]
  %62 = load i32, ptr %60, align 16
  %63 = zext i32 %62 to i64
  %64 = getelementptr inbounds nuw i8, ptr %9, i64 %63
  %65 = getelementptr inbounds nuw i32, ptr %64, i64 %indvars.iv
  %66 = load i32, ptr %65, align 4
  %67 = zext i32 %66 to i64
  %68 = getelementptr inbounds nuw i8, ptr %9, i64 %67
  %69 = getelementptr inbounds nuw i8, ptr %68, i64 8
  %70 = load i32, ptr %69, align 4
  %71 = zext i32 %70 to i64
  %72 = getelementptr inbounds nuw i8, ptr %57, i64 %71
  %73 = getelementptr inbounds nuw i8, ptr %68, i64 40
  %74 = load i32, ptr %73, align 4
  %75 = zext i32 %74 to i64
  call void @llvm.memset.p0.i64(ptr align 1 %72, i8 0, i64 %75, i1 false)
  %indvars.iv.next = add nuw nsw i64 %indvars.iv, 1
  %76 = load i32, ptr %58, align 4
  %77 = zext i32 %76 to i64
  %78 = icmp samesign ult i64 %indvars.iv.next, %77
  br i1 %78, label %61, label %.loopexit

.loopexit:                                        ; preds = %61, %moNfaCompressState32.exit, %4
  %.0 = phi i8 [ 0, %4 ], [ 1, %moNfaCompressState32.exit ], [ 1, %61 ]
  call void @llvm.lifetime.end.p0(i64 4, ptr nonnull %8) #8
  ret i8 %.0
}